target datalayout = "e-m:e-p270:32:32-p271:32:32-p272:64:64-i64:64-i128:128-f80:128-n8:16:32:64-S128"
target triple = "x86_64-pc-linux-gnu"

%struct.Vec_Bit_t_ = type { i32, i32, ptr }

; Function Attrs: inlinehint nounwind uwtable
define internal void @Vec_BitGrow(ptr noundef %0, i32 noundef %1) #2 {
  %3 = alloca ptr, align 8
  %4 = alloca i32, align 4
  store ptr %0, ptr %3, align 8, !tbaa !10
  store i32 %1, ptr %4, align 4, !tbaa !8
  %5 = load ptr, ptr %3, align 8, !tbaa !10
  %6 = getelementptr inbounds nuw %struct.Vec_Bit_t_, ptr %5, i32 0, i32 0
  %7 = load i32, ptr %6, align 8, !tbaa !102
  %8 = load i32, ptr %4, align 4, !tbaa !8
  %9 = icmp sge i32 %7, %8
  br i1 %9, label %10, label %11

10:                                               ; preds = %2
  br label %44

11:                                               ; preds = %2
  %12 = load i32, ptr %4, align 4, !tbaa !8
  %13 = ashr i32 %12, 5
  %14 = load i32, ptr %4, align 4, !tbaa !8
  %15 = and i32 %14, 31
  %16 = icmp sgt i32 %15, 0
  %17 = zext i1 %16 to i32
  %18 = add nsw i32 %13, %17
  store i32 %18, ptr %4, align 4, !tbaa !8
  %19 = load ptr, ptr %3, align 8, !tbaa !10
  %20 = getelementptr inbounds nuw %struct.Vec_Bit_t_, ptr %19, i32 0, i32 2
  %21 = load ptr, ptr %20, align 8, !tbaa !17
  %22 = icmp ne ptr %21, null
  br i1 %22, label %23, label %31

23:                                               ; preds = %11
  %24 = load ptr, ptr %3, align 8, !tbaa !10
  %25 = getelementptr inbounds nuw %struct.Vec_Bit_t_, ptr %24, i32 0, i32 2
  %26 = load ptr, ptr %25, align 8, !tbaa !17
  %27 = load i32, ptr %4, align 4, !tbaa !8
  %28 = sext i32 %27 to i64
  %29 = mul i64 4, %28
  %30 = call ptr @realloc(ptr noundef %26, i64 noundef %29) #16
  br label %36

31:                                               ; preds = %11
  %32 = load i32, ptr %4, align 4, !tbaa !8
  %33 = sext i32 %32 to i64
  %34 = mul i64 4, %33
  %35 = call noalias ptr @malloc(i64 noundef %34) #13
  br label %36

36:                                               ; preds = %31, %23
  %37 = phi ptr [ %30, %23 ], [ %35, %31 ]
  %38 = load ptr, ptr %3, align 8, !tbaa !10
  %39 = getelementptr inbounds nuw %struct.Vec_Bit_t_, ptr %38, i32 0, i32 2
  store ptr %37, ptr %39, align 8, !tbaa !17
  %40 = load i32, ptr %4, align 4, !tbaa !8
  %41 = mul nsw i32 %40, 32
  %42 = load ptr, ptr %3, align 8, !tbaa !10
  %43 = getelementptr inbounds nuw %struct.Vec_Bit_t_, ptr %42, i32 0, i32 0
  store i32 %41, ptr %43, align 8, !tbaa !102
  br label %44

44:                                               ; preds = %36, %10
  ret void
}

; Function Attrs: inlinehint nounwind uwtable
define internal void @Vec_BitWriteEntry(ptr noundef %0, i32 noundef %1, i32 noundef %2) #2 {
  %4 = alloca ptr, align 8
  %5 = alloca i32, align 4
  %6 = alloca i32, align 4
  store ptr %0, ptr %4, align 8, !tbaa !10
  store i32 %1, ptr %5, align 4, !tbaa !8
  store i32 %2, ptr %6, align 4, !tbaa !8
  %7 = load i32, ptr %6, align 4, !tbaa !8
  %8 = icmp eq i32 %7, 1
  br i1 %8, label %9, label %22

9:                                                ; preds = %3
  %10 = load i32, ptr %5, align 4, !tbaa !8
  %11 = and i32 %10, 31
  %12 = shl i32 1, %11
  %13 = load ptr, ptr %4, align 8, !tbaa !10
  %14 = getelementptr inbounds nuw %struct.Vec_Bit_t_, ptr %13, i32 0, i32 2
  %15 = load ptr, ptr %14, align 8, !tbaa !17
  %16 = load i32, ptr %5, align 4, !tbaa !8
  %17 = ashr i32 %16, 5
  %18 = sext i32 %17 to i64
  %19 = getelementptr inbounds i32, ptr %15, i64 %18
  %20 = load i32, ptr %19, align 4, !tbaa !8
  %21 = or i32 %20, %12
  store i32 %21, ptr %19, align 4, !tbaa !8
  br label %41

22:                                               ; preds = %3
  %23 = load i32, ptr %6, align 4, !tbaa !8
  %24 = icmp eq i32 %23, 0
  br i1 %24, label %25, label %39

25:                                               ; preds = %22
  %26 = load i32, ptr %5, align 4, !tbaa !8
  %27 = and i32 %26, 31
  %28 = shl i32 1, %27
  %29 = xor i32 %28, -1
  %30 = load ptr, ptr %4, align 8, !tbaa !10
  %31 = getelementptr inbounds nuw %struct.Vec_Bit_t_, ptr %30, i32 0, i32 2
  %32 = load ptr, ptr %31, align 8, !tbaa !17
  %33 = load i32, ptr %5, align 4, !tbaa !8
  %34 = ashr i32 %33, 5
  %35 = sext i32 %34 to i64
  %36 = getelementptr inbounds i32, ptr %32, i64 %35
  %37 = load i32, ptr %36, align 4, !tbaa !8
  %38 = and i32 %37, %29
  store i32 %38, ptr %36, align 4, !tbaa !8
  br label %40

39:                                               ; preds = %22
  br label %40

40:                                               ; preds = %39, %25
  br label %41

41:                                               ; preds = %40, %9
  ret void
}

; Function Attrs: inlinehint nounwind uwtable
define internal i32 @Abc_TtImply(ptr noundef %0, ptr noundef %1, i32 noundef %2) #2 {
  %4 = alloca i32, align 4
  %5 = alloca ptr, align 8
  %6 = alloca ptr, align 8
  %7 = alloca i32, align 4
  %8 = alloca i32, align 4
  %9 = alloca i32, align 4
  store ptr %0, ptr %5, align 8, !tbaa !12
  store ptr %1, ptr %6, align 8, !tbaa !12
  store i32 %2, ptr %7, align 4, !tbaa !8
  call void @llvm.lifetime.start.p0(i64 4, ptr %8) #12
  store i32 0, ptr %8, align 4, !tbaa !8
  br label %10

10:                                               ; preds = %34, %3
  %11 = load i32, ptr %8, align 4, !tbaa !8
  %12 = load i32, ptr %7, align 4, !tbaa !8
  %13 = icmp slt i32 %11, %12
  br i1 %13, label %14, label %37

14:                                               ; preds = %10
  %15 = load ptr, ptr %5, align 8, !tbaa !12
  %16 = load i32, ptr %8, align 4, !tbaa !8
  %17 = sext i32 %16 to i64
  %18 = getelementptr inbounds i64, ptr %15, i64 %17
  %19 = load i64, ptr %18, align 8, !tbaa !23
  %20 = load ptr, ptr %6, align 8, !tbaa !12
  %21 = load i32, ptr %8, align 4, !tbaa !8
  %22 = sext i32 %21 to i64
  %23 = getelementptr inbounds i64, ptr %20, i64 %22
  %24 = load i64, ptr %23, align 8, !tbaa !23
  %25 = and i64 %19, %24
  %26 = load ptr, ptr %5, align 8, !tbaa !12
  %27 = load i32, ptr %8, align 4, !tbaa !8
  %28 = sext i32 %27 to i64
  %29 = getelementptr inbounds i64, ptr %26, i64 %28
  %30 = load i64, ptr %29, align 8, !tbaa !23
  %31 = icmp ne i64 %25, %30
  br i1 %31, label %32, label %33

32:                                               ; preds = %14
  store i32 0, ptr %4, align 4
  store i32 1, ptr %9, align 4
  br label %38

33:                                               ; preds = %14
  br label %34

34:                                               ; preds = %33
  %35 = load i32, ptr %8, align 4, !tbaa !8
  %36 = add nsw i32 %35, 1
  store i32 %36, ptr %8, align 4, !tbaa !8
  br label %10, !llvm.loop !28

37:                                               ; preds = %10
  store i32 1, ptr %4, align 4
  store i32 1, ptr %9, align 4
  br label %38

38:                                               ; preds = %37, %32
  call void @llvm.lifetime.end.p0(i64 4, ptr %8) #12
  %39 = load i32, ptr %4, align 4
  ret i32 %39
}

; Function Attrs: inlinehint nounwind uwtable
define internal i32 @Vec_BitEntry(ptr noundef %0, i32 noundef %1) #2 {
  %3 = alloca ptr, align 8
  %4 = alloca i32, align 4
  store ptr %0, ptr %3, align 8, !tbaa !10
  store i32 %1, ptr %4, align 4, !tbaa !8
  %5 = load ptr, ptr %3, align 8, !tbaa !10
  %6 = getelementptr inbounds nuw %struct.Vec_Bit_t_, ptr %5, i32 0, i32 2
  %7 = load ptr, ptr %6, align 8, !tbaa !17
  %8 = load i32, ptr %4, align 4, !tbaa !8
  %9 = ashr i32 %8, 5
  %10 = sext i32 %9 to i64
  %11 = getelementptr inbounds i32, ptr %7, i64 %10
  %12 = load i32, ptr %11, align 4, !tbaa !8
  %13 = load i32, ptr %4, align 4, !tbaa !8
  %14 = and i32 %13, 31
  %15 = ashr i32 %12, %14
  %16 = and i32 %15, 1
  ret i32 %16
}

; Function Attrs: inlinehint nounwind uwtable
define internal void @Vec_BitFill(ptr noundef %0, i32 noundef %1, i32 noundef %2) #2 {
  %4 = alloca ptr, align 8
  %5 = alloca i32, align 4
  %6 = alloca i32, align 4
  %7 = alloca i32, align 4
  store ptr %0, ptr %4, align 8, !tbaa !10
  store i32 %1, ptr %5, align 4, !tbaa !8
  store i32 %2, ptr %6, align 4, !tbaa !8
  call void @llvm.lifetime.start.p0(i64 4, ptr %7) #12
  %8 = load ptr, ptr %4, align 8, !tbaa !10
  %9 = load i32, ptr %5, align 4, !tbaa !8
  call void @Vec_BitGrow(ptr noundef %8, i32 noundef %9)
  %10 = load i32, ptr %5, align 4, !tbaa !8
  %11 = ashr i32 %10, 5
  %12 = load i32, ptr %5, align 4, !tbaa !8
  %13 = and i32 %12, 31
  %14 = icmp sgt i32 %13, 0
  %15 = zext i1 %14 to i32
  %16 = add nsw i32 %11, %15
  store i32 %16, ptr %5, align 4, !tbaa !8
  %17 = load i32, ptr %6, align 4, !tbaa !8
  %18 = icmp eq i32 %17, 0
  br i1 %18, label %19, label %35

19:                                               ; preds = %3
  store i32 0, ptr %7, align 4, !tbaa !8
  br label %20

20:                                               ; preds = %31, %19
  %21 = load i32, ptr %7, align 4, !tbaa !8
  %22 = load i32, ptr %5, align 4, !tbaa !8
  %23 = icmp slt i32 %21, %22
  br i1 %23, label %24, label %34

24:                                               ; preds = %20
  %25 = load ptr, ptr %4, align 8, !tbaa !10
  %26 = getelementptr inbounds nuw %struct.Vec_Bit_t_, ptr %25, i32 0, i32 2
  %27 = load ptr, ptr %26, align 8, !tbaa !17
  %28 = load i32, ptr %7, align 4, !tbaa !8
  %29 = sext i32 %28 to i64
  %30 = getelementptr inbounds i32, ptr %27, i64 %29
  store i32 0, ptr %30, align 4, !tbaa !8
  br label %31

31:                                               ; preds = %24
  %32 = load i32, ptr %7, align 4, !tbaa !8
  %33 = add nsw i32 %32, 1
  store i32 %33, ptr %7, align 4, !tbaa !8
  br label %20, !llvm.loop !20

34:                                               ; preds = %20
  br label %56

35:                                               ; preds = %3
  %36 = load i32, ptr %6, align 4, !tbaa !8
  %37 = icmp eq i32 %36, 1
  br i1 %37, label %38, label %54

38:                                               ; preds = %35
  store i32 0, ptr %7, align 4, !tbaa !8
  br label %39

39:                                               ; preds = %50, %38
  %40 = load i32, ptr %7, align 4, !tbaa !8
  %41 = load i32, ptr %5, align 4, !tbaa !8
  %42 = icmp slt i32 %40, %41
  br i1 %42, label %43, label %53

43:                                               ; preds = %39
  %44 = load ptr, ptr %4, align 8, !tbaa !10
  %45 = getelementptr inbounds nuw %struct.Vec_Bit_t_, ptr %44, i32 0, i32 2
  %46 = load ptr, ptr %45, align 8, !tbaa !17
  %47 = load i32, ptr %7, align 4, !tbaa !8
  %48 = sext i32 %47 to i64
  %49 = getelementptr inbounds i32, ptr %46, i64 %48
  store i32 -1, ptr %49, align 4, !tbaa !8
  br label %50

50:                                               ; preds = %43
  %51 = load i32, ptr %7, align 4, !tbaa !8
  %52 = add nsw i32 %51, 1
  store i32 %52, ptr %7, align 4, !tbaa !8
  br label %39, !llvm.loop !21

53:                                               ; preds = %39
  br label %55

54:                                               ; preds = %35
  br label %55

55:                                               ; preds = %54, %53
  br label %56

56:                                               ; preds = %55, %34
  %57 = load i32, ptr %5, align 4, !tbaa !8
  %58 = mul nsw i32 %57, 32
  %59 = load ptr, ptr %4, align 8, !tbaa !10
  %60 = getelementptr inbounds nuw %struct.Vec_Bit_t_, ptr %59, i32 0, i32 1
  store i32 %58, ptr %60, align 4, !tbaa !22
  call void @llvm.lifetime.end.p0(i64 4, ptr %7) #12
  ret void
}

; Function Attrs: nounwind uwtable
define void @Io_ReadPlaMarkContained(ptr noundef %0, i32 noundef %1, i32 noundef %2, ptr noundef %3) #0 {
  %5 = alloca ptr, align 8
  %6 = alloca i32, align 4
  %7 = alloca i32, align 4
  %8 = alloca ptr, align 8
  %9 = alloca i32, align 4
  %10 = alloca i32, align 4
  store ptr %0, ptr %5, align 8, !tbaa !3
  store i32 %1, ptr %6, align 4, !tbaa !8
  store i32 %2, ptr %7, align 4, !tbaa !8
  store ptr %3, ptr %8, align 8, !tbaa !10
  call void @llvm.lifetime.start.p0(i64 4, ptr %9) #12
  call void @llvm.lifetime.start.p0(i64 4, ptr %10) #12
  %11 = load ptr, ptr %8, align 8, !tbaa !10
  %12 = load i32, ptr %6, align 4, !tbaa !8
  call void @Vec_BitFill(ptr noundef %11, i32 noundef %12, i32 noundef 0)
  store i32 0, ptr %9, align 4, !tbaa !8
  br label %13

13:                                               ; preds = %76, %4
  %14 = load i32, ptr %9, align 4, !tbaa !8
  %15 = load i32, ptr %6, align 4, !tbaa !8
  %16 = icmp slt i32 %14, %15
  br i1 %16, label %17, label %79

17:                                               ; preds = %13
  %18 = load ptr, ptr %8, align 8, !tbaa !10
  %19 = load i32, ptr %9, align 4, !tbaa !8
  %20 = call i32 @Vec_BitEntry(ptr noundef %18, i32 noundef %19)
  %21 = icmp ne i32 %20, 0
  br i1 %21, label %75, label %22

22:                                               ; preds = %17
  %23 = load i32, ptr %9, align 4, !tbaa !8
  %24 = add nsw i32 %23, 1
  store i32 %24, ptr %10, align 4, !tbaa !8
  br label %25

25:                                               ; preds = %71, %22
  %26 = load i32, ptr %10, align 4, !tbaa !8
  %27 = load i32, ptr %6, align 4, !tbaa !8
  %28 = icmp slt i32 %26, %27
  br i1 %28, label %29, label %74

29:                                               ; preds = %25
  %30 = load ptr, ptr %8, align 8, !tbaa !10
  %31 = load i32, ptr %10, align 4, !tbaa !8
  %32 = call i32 @Vec_BitEntry(ptr noundef %30, i32 noundef %31)
  %33 = icmp ne i32 %32, 0
  br i1 %33, label %70, label %34

34:                                               ; preds = %29
  %35 = load ptr, ptr %5, align 8, !tbaa !3
  %36 = load i32, ptr %9, align 4, !tbaa !8
  %37 = sext i32 %36 to i64
  %38 = getelementptr inbounds ptr, ptr %35, i64 %37
  %39 = load ptr, ptr %38, align 8, !tbaa !12
  %40 = load ptr, ptr %5, align 8, !tbaa !3
  %41 = load i32, ptr %10, align 4, !tbaa !8
  %42 = sext i32 %41 to i64
  %43 = getelementptr inbounds ptr, ptr %40, i64 %42
  %44 = load ptr, ptr %43, align 8, !tbaa !12
  %45 = load i32, ptr %7, align 4, !tbaa !8
  %46 = call i32 @Abc_TtImply(ptr noundef %39, ptr noundef %44, i32 noundef %45)
  %47 = icmp ne i32 %46, 0
  br i1 %47, label %48, label %51

48:                                               ; preds = %34
  %49 = load ptr, ptr %8, align 8, !tbaa !10
  %50 = load i32, ptr %10, align 4, !tbaa !8
  call void @Vec_BitWriteEntry(ptr noundef %49, i32 noundef %50, i32 noundef 1)
  br label %69

51:                                               ; preds = %34
  %52 = load ptr, ptr %5, align 8, !tbaa !3
  %53 = load i32, ptr %10, align 4, !tbaa !8
  %54 = sext i32 %53 to i64
  %55 = getelementptr inbounds ptr, ptr %52, i64 %54
  %56 = load ptr, ptr %55, align 8, !tbaa !12
  %57 = load ptr, ptr %5, align 8, !tbaa !3
  %58 = load i32, ptr %9, align 4, !tbaa !8
  %59 = sext i32 %58 to i64
  %60 = getelementptr inbounds ptr, ptr %57, i64 %59
  %61 = load ptr, ptr %60, align 8, !tbaa !12
  %62 = load i32, ptr %7, align 4, !tbaa !8
  %63 = call i32 @Abc_TtImply(ptr noundef %56, ptr noundef %61, i32 noundef %62)
  %64 = icmp ne i32 %63, 0
  br i1 %64, label %65, label %68

65:                                               ; preds = %51
  %66 = load ptr, ptr %8, align 8, !tbaa !10
  %67 = load i32, ptr %9, align 4, !tbaa !8
  call void @Vec_BitWriteEntry(ptr noundef %66, i32 noundef %67, i32 noundef 1)
  br label %74

68:                                               ; preds = %51
  br label %69

69:                                               ; preds = %68, %48
  br label %70

70:                                               ; preds = %69, %29
  br label %71

71:                                               ; preds = %70
  %72 = load i32, ptr %10, align 4, !tbaa !8
  %73 = add nsw i32 %72, 1
  store i32 %73, ptr %10, align 4, !tbaa !8
  br label %25, !llvm.loop !26

74:                                               ; preds = %65, %25
  br label %75

75:                                               ; preds = %74, %17
  br label %76

76:                                               ; preds = %75
  %77 = load i32, ptr %9, align 4, !tbaa !8
  %78 = add nsw i32 %77, 1
  store i32 %78, ptr %9, align 4, !tbaa !8
  br label %13, !llvm.loop !27

79:                                               ; preds = %13
  call void @llvm.lifetime.end.p0(i64 4, ptr %10) #12
  call void @llvm.lifetime.end.p0(i64 4, ptr %9) #12
  ret void
}