; Function Attrs: nounwind uwtable
define void @Io_ReadPlaMarkContained(ptr noundef readonly captures(none) %0, i32 noundef %1, i32 noundef %2, ptr noundef captures(none) initializes((4, 8)) %3) local_unnamed_addr #0 {
  %5 = load i32, ptr %3, align 8, !tbaa !3
  %.not.i.i = icmp slt i32 %5, %1
  %6 = ashr i32 %1, 5
  %7 = and i32 %1, 31
  br i1 %.not.i.i, label %8, label %Vec_BitGrow.exit.i

8:                                                ; preds = %4
  %9 = icmp ne i32 %7, 0
  %10 = zext i1 %9 to i32
  %11 = add nsw i32 %6, %10
  %12 = getelementptr inbounds nuw i8, ptr %3, i64 8
  %13 = load ptr, ptr %12, align 8, !tbaa !10
  %.not11.i.i = icmp eq ptr %13, null
  %14 = sext i32 %11 to i64
  %15 = shl nsw i64 %14, 2
  br i1 %.not11.i.i, label %18, label %16

16:                                               ; preds = %8
  %17 = tail call ptr @realloc(ptr noundef nonnull %13, i64 noundef %15) #14
  br label %20

18:                                               ; preds = %8
  %19 = tail call noalias ptr @malloc(i64 noundef %15) #15
  br label %20

20:                                               ; preds = %18, %16
  %21 = phi ptr [ %17, %16 ], [ %19, %18 ]
  store ptr %21, ptr %12, align 8, !tbaa !10
  %22 = shl nsw i32 %11, 5
  store i32 %22, ptr %3, align 8, !tbaa !3
  br label %Vec_BitGrow.exit.i

Vec_BitGrow.exit.i:                               ; preds = %4, %20
  %23 = icmp ne i32 %7, 0
  %24 = zext i1 %23 to i32
  %25 = add nsw i32 %6, %24
  %26 = icmp sgt i32 %25, 0
  br i1 %26, label %.lr.ph.i, label %Vec_BitFill.exit

.lr.ph.i:                                         ; preds = %Vec_BitGrow.exit.i
  %27 = getelementptr inbounds nuw i8, ptr %3, i64 8
  %28 = load ptr, ptr %27, align 8, !tbaa !10
  %29 = zext nneg i32 %25 to i64
  %30 = shl nuw nsw i64 %29, 2
  tail call void @llvm.memset.p0.i64(ptr align 4 %28, i8 0, i64 %30, i1 false), !tbaa !11
  br label %Vec_BitFill.exit

Vec_BitFill.exit:                                 ; preds = %Vec_BitGrow.exit.i, %.lr.ph.i
  %31 = shl nsw i32 %25, 5
  %32 = getelementptr inbounds nuw i8, ptr %3, i64 4
  store i32 %31, ptr %32, align 4, !tbaa !12
  %33 = icmp sgt i32 %1, 0
  br i1 %33, label %.lr.ph53, label %._crit_edge

.lr.ph53:                                         ; preds = %Vec_BitFill.exit
  %34 = getelementptr i8, ptr %3, i64 8
  %.val31 = load ptr, ptr %34, align 8, !tbaa !10
  %35 = icmp sgt i32 %2, 0
  %wide.trip.count.i = zext nneg i32 %2 to i64
  br i1 %35, label %.lr.ph53.split.us.preheader, label %.lr.ph53.split

.lr.ph53.split.us.preheader:                      ; preds = %.lr.ph53
  %36 = zext nneg i32 %1 to i64
  %wide.trip.count64 = zext nneg i32 %1 to i64
  br label %.lr.ph53.split.us

.lr.ph53.split.us:                                ; preds = %.lr.ph53.split.us.preheader, %.loopexit48.us
  %indvars.iv60 = phi i64 [ 0, %.lr.ph53.split.us.preheader ], [ %45, %.loopexit48.us ]
  %indvars.iv = phi i64 [ 1, %.lr.ph53.split.us.preheader ], [ %indvars.iv.next, %.loopexit48.us ]
  %37 = trunc nuw nsw i64 %indvars.iv60 to i32
  %38 = lshr i64 %indvars.iv60, 5
  %39 = and i64 %38, 134217727
  %40 = getelementptr inbounds nuw i32, ptr %.val31, i64 %39
  %41 = load i32, ptr %40, align 4, !tbaa !11
  %42 = and i32 %37, 31
  %43 = shl nuw i32 1, %42
  %44 = and i32 %41, %43
  %.not.us = icmp eq i32 %44, 0
  %45 = add nuw nsw i64 %indvars.iv60, 1
  %46 = icmp samesign ult i64 %45, %36
  %or.cond67 = select i1 %.not.us, i1 %46, i1 false
  br i1 %or.cond67, label %.lr.ph.us, label %.loopexit48.us

.loopexit48.us:                                   ; preds = %Abc_TtImply.exit43.us.us, %.lr.ph53.split.us, %.split.us.us
  %indvars.iv.next = add nuw nsw i64 %indvars.iv, 1
  %exitcond65.not = icmp eq i64 %45, %wide.trip.count64
  br i1 %exitcond65.not, label %._crit_edge, label %.lr.ph53.split.us, !llvm.loop !21

.lr.ph.us:                                        ; preds = %.lr.ph53.split.us
  %47 = getelementptr inbounds nuw ptr, ptr %0, i64 %indvars.iv60
  br label %48

48:                                               ; preds = %Abc_TtImply.exit43.us.us, %.lr.ph.us
  %indvars.iv56 = phi i64 [ %indvars.iv.next57, %Abc_TtImply.exit43.us.us ], [ %indvars.iv, %.lr.ph.us ]
  %49 = trunc nuw nsw i64 %indvars.iv56 to i32
  %50 = lshr i64 %indvars.iv56, 5
  %51 = and i64 %50, 134217727
  %52 = getelementptr inbounds nuw i32, ptr %.val31, i64 %51
  %53 = load i32, ptr %52, align 4, !tbaa !11
  %54 = and i32 %49, 31
  %55 = shl nuw i32 1, %54
  %56 = and i32 %53, %55
  %.not28.us.us = icmp eq i32 %56, 0
  br i1 %.not28.us.us, label %.lr.ph.preheader.i.us.us, label %Abc_TtImply.exit43.us.us

.lr.ph.preheader.i.us.us:                         ; preds = %48
  %57 = load ptr, ptr %47, align 8, !tbaa !15
  %58 = getelementptr inbounds nuw ptr, ptr %0, i64 %indvars.iv56
  %59 = load ptr, ptr %58, align 8, !tbaa !15
  br label %.lr.ph.i34.us.us

.lr.ph.i34.us.us:                                 ; preds = %71, %.lr.ph.preheader.i.us.us
  %indvars.iv.i.us.us = phi i64 [ 0, %.lr.ph.preheader.i.us.us ], [ %indvars.iv.next.i.us.us, %71 ]
  %60 = getelementptr inbounds nuw i64, ptr %57, i64 %indvars.iv.i.us.us
  %61 = load i64, ptr %60, align 8, !tbaa !17
  %62 = getelementptr inbounds nuw i64, ptr %59, i64 %indvars.iv.i.us.us
  %63 = load i64, ptr %62, align 8, !tbaa !17
  %64 = and i64 %63, %61
  %.not.i.us.us = icmp eq i64 %64, %61
  br i1 %.not.i.us.us, label %71, label %.lr.ph.i38.us.us

.lr.ph.i38.us.us:                                 ; preds = %.lr.ph.i34.us.us, %70
  %indvars.iv.i39.us.us = phi i64 [ %indvars.iv.next.i41.us.us, %70 ], [ 0, %.lr.ph.i34.us.us ]
  %65 = getelementptr inbounds nuw i64, ptr %59, i64 %indvars.iv.i39.us.us
  %66 = load i64, ptr %65, align 8, !tbaa !17
  %67 = getelementptr inbounds nuw i64, ptr %57, i64 %indvars.iv.i39.us.us
  %68 = load i64, ptr %67, align 8, !tbaa !17
  %69 = and i64 %68, %66
  %.not.i40.us.us = icmp eq i64 %69, %66
  br i1 %.not.i40.us.us, label %70, label %Abc_TtImply.exit43.us.us

70:                                               ; preds = %.lr.ph.i38.us.us
  %indvars.iv.next.i41.us.us = add nuw nsw i64 %indvars.iv.i39.us.us, 1
  %exitcond.not.i42.us.us = icmp eq i64 %indvars.iv.next.i41.us.us, %wide.trip.count.i
  br i1 %exitcond.not.i42.us.us, label %.split.us.us, label %.lr.ph.i38.us.us, !llvm.loop !22

71:                                               ; preds = %.lr.ph.i34.us.us
  %indvars.iv.next.i.us.us = add nuw nsw i64 %indvars.iv.i.us.us, 1
  %exitcond.not.i.us.us = icmp eq i64 %indvars.iv.next.i.us.us, %wide.trip.count.i
  br i1 %exitcond.not.i.us.us, label %.loopexit.us.us, label %.lr.ph.i34.us.us, !llvm.loop !22

Abc_TtImply.exit43.us.us:                         ; preds = %.lr.ph.i38.us.us, %.loopexit.us.us, %48
  %indvars.iv.next57 = add nuw nsw i64 %indvars.iv56, 1
  %exitcond59.not = icmp eq i64 %indvars.iv.next57, %wide.trip.count64
  br i1 %exitcond59.not, label %.loopexit48.us, label %48, !llvm.loop !23

.loopexit.us.us:                                  ; preds = %71
  %72 = or i32 %53, %55
  store i32 %72, ptr %52, align 4, !tbaa !11
  br label %Abc_TtImply.exit43.us.us

.split.us.us:                                     ; preds = %70
  %73 = load i32, ptr %40, align 4, !tbaa !11
  %74 = or i32 %73, %43
  store i32 %74, ptr %40, align 4, !tbaa !11
  br label %.loopexit48.us

.lr.ph53.split:                                   ; preds = %.lr.ph53, %.loopexit48
  %.02651 = phi i32 [ %.049, %.loopexit48 ], [ 0, %.lr.ph53 ]
  %75 = lshr i32 %.02651, 5
  %76 = zext nneg i32 %75 to i64
  %77 = getelementptr inbounds nuw i32, ptr %.val31, i64 %76
  %78 = load i32, ptr %77, align 4, !tbaa !11
  %79 = and i32 %.02651, 31
  %80 = shl nuw i32 1, %79
  %81 = and i32 %78, %80
  %.not = icmp eq i32 %81, 0
  %.049 = add nuw nsw i32 %.02651, 1
  %82 = icmp slt i32 %.049, %1
  %or.cond = select i1 %.not, i1 %82, i1 false
  br i1 %or.cond, label %.lr.ph, label %.loopexit48

.lr.ph:                                           ; preds = %.lr.ph53.split, %Abc_TtImply.exit43
  %.050 = phi i32 [ %.0, %Abc_TtImply.exit43 ], [ %.049, %.lr.ph53.split ]
  %83 = lshr i32 %.050, 5
  %84 = zext nneg i32 %83 to i64
  %85 = getelementptr inbounds nuw i32, ptr %.val31, i64 %84
  %86 = load i32, ptr %85, align 4, !tbaa !11
  %87 = and i32 %.050, 31
  %88 = shl nuw i32 1, %87
  %89 = and i32 %86, %88
  %.not28 = icmp eq i32 %89, 0
  br i1 %.not28, label %90, label %Abc_TtImply.exit43

90:                                               ; preds = %.lr.ph
  %91 = or i32 %86, %88
  store i32 %91, ptr %85, align 4, !tbaa !11
  br label %Abc_TtImply.exit43

Abc_TtImply.exit43:                               ; preds = %.lr.ph, %90
  %.0 = add nuw nsw i32 %.050, 1
  %exitcond.not = icmp eq i32 %.0, %1
  br i1 %exitcond.not, label %.loopexit48, label %.lr.ph, !llvm.loop !23

.loopexit48:                                      ; preds = %Abc_TtImply.exit43, %.lr.ph53.split
  %exitcond55.not = icmp eq i32 %.049, %1
  br i1 %exitcond55.not, label %._crit_edge, label %.lr.ph53.split, !llvm.loop !21

._crit_edge:                                      ; preds = %.loopexit48, %.loopexit48.us, %Vec_BitFill.exit
  ret void
}